; ModuleID = '59/4.c'
source_filename = "59/4.c"
target datalayout = "e-m:e-p270:32:32-p271:32:32-p272:64:64-i64:64-f80:128-n8:16:32:64-S128"
target triple = "x86_64-pc-linux-gnu"

@.str = private unnamed_addr constant [3 x i8] c"%d\00", align 1
@.str.1 = private unnamed_addr constant [3 x i8] c"%s\00", align 1
@.str.2 = private unnamed_addr constant [4 x i8] c"%d\0A\00", align 1

; Function Attrs: noinline nounwind uwtable
define dso_local i32 @main() #0 {
  %1 = alloca i32, align 4
  %2 = alloca i32, align 4
  %3 = alloca i32, align 4
  %4 = alloca [103 x [103 x i32]], align 16
  %5 = alloca i32, align 4
  %6 = alloca i32, align 4
  %7 = alloca i32, align 4
  %8 = alloca [103 x i8], align 16
  %9 = alloca i32, align 4
  store i32 0, i32* %1, align 4
  store i32 0, i32* %7, align 4
  %10 = call i32 (i8*, ...) @__isoc99_scanf(i8* getelementptr inbounds ([3 x i8], [3 x i8]* @.str, i64 0, i64 0), i32* %2)
  store i32 0, i32* %5, align 4
  br label %11

11:                                               ; preds = %39, %0
  %12 = load i32, i32* %5, align 4
  %13 = load i32, i32* %2, align 4
  %14 = add nsw i32 %13, 2
  %15 = icmp slt i32 %12, %14
  br i1 %15, label %16, label %42

16:                                               ; preds = %11
  %17 = getelementptr inbounds [103 x [103 x i32]], [103 x [103 x i32]]* %4, i64 0, i64 0
  %18 = load i32, i32* %5, align 4
  %19 = sext i32 %18 to i64
  %20 = getelementptr inbounds [103 x i32], [103 x i32]* %17, i64 0, i64 %19
  store i32 -1, i32* %20, align 4
  %21 = load i32, i32* %2, align 4
  %22 = add nsw i32 %21, 1
  %23 = sext i32 %22 to i64
  %24 = getelementptr inbounds [103 x [103 x i32]], [103 x [103 x i32]]* %4, i64 0, i64 %23
  %25 = load i32, i32* %5, align 4
  %26 = sext i32 %25 to i64
  %27 = getelementptr inbounds [103 x i32], [103 x i32]* %24, i64 0, i64 %26
  store i32 -1, i32* %27, align 4
  %28 = load i32, i32* %5, align 4
  %29 = sext i32 %28 to i64
  %30 = getelementptr inbounds [103 x [103 x i32]], [103 x [103 x i32]]* %4, i64 0, i64 %29
  %31 = getelementptr inbounds [103 x i32], [103 x i32]* %30, i64 0, i64 0
  store i32 -1, i32* %31, align 4
  %32 = load i32, i32* %5, align 4
  %33 = sext i32 %32 to i64
  %34 = getelementptr inbounds [103 x [103 x i32]], [103 x [103 x i32]]* %4, i64 0, i64 %33
  %35 = load i32, i32* %2, align 4
  %36 = add nsw i32 %35, 1
  %37 = sext i32 %36 to i64
  %38 = getelementptr inbounds [103 x i32], [103 x i32]* %34, i64 0, i64 %37
  store i32 -1, i32* %38, align 4
  br label %39

39:                                               ; preds = %16
  %40 = load i32, i32* %5, align 4
  %41 = add nsw i32 %40, 1
  store i32 %41, i32* %5, align 4
  br label %11

42:                                               ; preds = %11
  store i32 1, i32* %5, align 4
  br label %43

43:                                               ; preds = %108, %42
  %44 = load i32, i32* %5, align 4
  %45 = load i32, i32* %2, align 4
  %46 = icmp sle i32 %44, %45
  br i1 %46, label %47, label %111

47:                                               ; preds = %43
  %48 = getelementptr inbounds [103 x i8], [103 x i8]* %8, i64 0, i64 0
  %49 = call i32 (i8*, ...) @__isoc99_scanf(i8* getelementptr inbounds ([3 x i8], [3 x i8]* @.str.1, i64 0, i64 0), i8* %48)
  store i32 0, i32* %6, align 4
  br label %50

50:                                               ; preds = %104, %47
  %51 = load i32, i32* %6, align 4
  %52 = load i32, i32* %2, align 4
  %53 = icmp slt i32 %51, %52
  br i1 %53, label %54, label %107

54:                                               ; preds = %50
  %55 = load i32, i32* %6, align 4
  %56 = sext i32 %55 to i64
  %57 = getelementptr inbounds [103 x i8], [103 x i8]* %8, i64 0, i64 %56
  %58 = load i8, i8* %57, align 1
  %59 = sext i8 %58 to i32
  %60 = icmp eq i32 %59, 46
  br i1 %60, label %61, label %69

61:                                               ; preds = %54
  %62 = load i32, i32* %5, align 4
  %63 = sext i32 %62 to i64
  %64 = getelementptr inbounds [103 x [103 x i32]], [103 x [103 x i32]]* %4, i64 0, i64 %63
  %65 = load i32, i32* %6, align 4
  %66 = add nsw i32 %65, 1
  %67 = sext i32 %66 to i64
  %68 = getelementptr inbounds [103 x i32], [103 x i32]* %64, i64 0, i64 %67
  store i32 0, i32* %68, align 4
  br label %103

69:                                               ; preds = %54
  %70 = load i32, i32* %6, align 4
  %71 = sext i32 %70 to i64
  %72 = getelementptr inbounds [103 x i8], [103 x i8]* %8, i64 0, i64 %71
  %73 = load i8, i8* %72, align 1
  %74 = sext i8 %73 to i32
  %75 = icmp eq i32 %74, 35
  br i1 %75, label %76, label %84

76:                                               ; preds = %69
  %77 = load i32, i32* %5, align 4
  %78 = sext i32 %77 to i64
  %79 = getelementptr inbounds [103 x [103 x i32]], [103 x [103 x i32]]* %4, i64 0, i64 %78
  %80 = load i32, i32* %6, align 4
  %81 = add nsw i32 %80, 1
  %82 = sext i32 %81 to i64
  %83 = getelementptr inbounds [103 x i32], [103 x i32]* %79, i64 0, i64 %82
  store i32 -1, i32* %83, align 4
  br label %102

84:                                               ; preds = %69
  %85 = load i32, i32* %6, align 4
  %86 = sext i32 %85 to i64
  %87 = getelementptr inbounds [103 x i8], [103 x i8]* %8, i64 0, i64 %86
  %88 = load i8, i8* %87, align 1
  %89 = sext i8 %88 to i32
  %90 = icmp eq i32 %89, 64
  br i1 %90, label %91, label %101

91:                                               ; preds = %84
  %92 = load i32, i32* %5, align 4
  %93 = sext i32 %92 to i64
  %94 = getelementptr inbounds [103 x [103 x i32]], [103 x [103 x i32]]* %4, i64 0, i64 %93
  %95 = load i32, i32* %6, align 4
  %96 = add nsw i32 %95, 1
  %97 = sext i32 %96 to i64
  %98 = getelementptr inbounds [103 x i32], [103 x i32]* %94, i64 0, i64 %97
  store i32 1, i32* %98, align 4
  %99 = load i32, i32* %7, align 4
  %100 = add nsw i32 %99, 1
  store i32 %100, i32* %7, align 4
  br label %101

101:                                              ; preds = %91, %84
  br label %102

102:                                              ; preds = %101, %76
  br label %103

103:                                              ; preds = %102, %61
  br label %104

104:                                              ; preds = %103
  %105 = load i32, i32* %6, align 4
  %106 = add nsw i32 %105, 1
  store i32 %106, i32* %6, align 4
  br label %50

107:                                              ; preds = %50
  br label %108

108:                                              ; preds = %107
  %109 = load i32, i32* %5, align 4
  %110 = add nsw i32 %109, 1
  store i32 %110, i32* %5, align 4
  br label %43

111:                                              ; preds = %43
  %112 = call i32 (i8*, ...) @__isoc99_scanf(i8* getelementptr inbounds ([3 x i8], [3 x i8]* @.str, i64 0, i64 0), i32* %3)
  store i32 2, i32* %9, align 4
  store i32 2, i32* %9, align 4
  br label %113

113:                                              ; preds = %240, %111
  %114 = load i32, i32* %9, align 4
  %115 = load i32, i32* %3, align 4
  %116 = icmp sle i32 %114, %115
  br i1 %116, label %117, label %243

117:                                              ; preds = %113
  store i32 1, i32* %5, align 4
  br label %118

118:                                              ; preds = %236, %117
  %119 = load i32, i32* %5, align 4
  %120 = load i32, i32* %2, align 4
  %121 = icmp sle i32 %119, %120
  br i1 %121, label %122, label %239

122:                                              ; preds = %118
  store i32 1, i32* %6, align 4
  br label %123

123:                                              ; preds = %232, %122
  %124 = load i32, i32* %6, align 4
  %125 = load i32, i32* %2, align 4
  %126 = icmp sle i32 %124, %125
  br i1 %126, label %127, label %235

127:                                              ; preds = %123
  %128 = load i32, i32* %5, align 4
  %129 = sext i32 %128 to i64
  %130 = getelementptr inbounds [103 x [103 x i32]], [103 x [103 x i32]]* %4, i64 0, i64 %129
  %131 = load i32, i32* %6, align 4
  %132 = sext i32 %131 to i64
  %133 = getelementptr inbounds [103 x i32], [103 x i32]* %130, i64 0, i64 %132
  %134 = load i32, i32* %133, align 4
  %135 = icmp eq i32 %134, 0
  br i1 %135, label %136, label %231

136:                                              ; preds = %127
  %137 = load i32, i32* %5, align 4
  %138 = add nsw i32 %137, 1
  %139 = sext i32 %138 to i64
  %140 = getelementptr inbounds [103 x [103 x i32]], [103 x [103 x i32]]* %4, i64 0, i64 %139
  %141 = load i32, i32* %6, align 4
  %142 = sext i32 %141 to i64
  %143 = getelementptr inbounds [103 x i32], [103 x i32]* %140, i64 0, i64 %142
  %144 = load i32, i32* %143, align 4
  %145 = icmp sge i32 %144, 1
  br i1 %145, label %156, label %146

146:                                              ; preds = %136
  %147 = load i32, i32* %5, align 4
  %148 = sext i32 %147 to i64
  %149 = getelementptr inbounds [103 x [103 x i32]], [103 x [103 x i32]]* %4, i64 0, i64 %148
  %150 = load i32, i32* %6, align 4
  %151 = add nsw i32 %150, 1
  %152 = sext i32 %151 to i64
  %153 = getelementptr inbounds [103 x i32], [103 x i32]* %149, i64 0, i64 %152
  %154 = load i32, i32* %153, align 4
  %155 = icmp sge i32 %154, 1
  br i1 %155, label %156, label %166

156:                                              ; preds = %146, %136
  %157 = load i32, i32* %9, align 4
  %158 = load i32, i32* %5, align 4
  %159 = sext i32 %158 to i64
  %160 = getelementptr inbounds [103 x [103 x i32]], [103 x [103 x i32]]* %4, i64 0, i64 %159
  %161 = load i32, i32* %6, align 4
  %162 = sext i32 %161 to i64
  %163 = getelementptr inbounds [103 x i32], [103 x i32]* %160, i64 0, i64 %162
  store i32 %157, i32* %163, align 4
  %164 = load i32, i32* %7, align 4
  %165 = add nsw i32 %164, 1
  store i32 %165, i32* %7, align 4
  br label %230

166:                                              ; preds = %146
  %167 = load i32, i32* %5, align 4
  %168 = sub nsw i32 %167, 1
  %169 = sext i32 %168 to i64
  %170 = getelementptr inbounds [103 x [103 x i32]], [103 x [103 x i32]]* %4, i64 0, i64 %169
  %171 = load i32, i32* %6, align 4
  %172 = sext i32 %171 to i64
  %173 = getelementptr inbounds [103 x i32], [103 x i32]* %170, i64 0, i64 %172
  %174 = load i32, i32* %173, align 4
  %175 = icmp sge i32 %174, 1
  br i1 %175, label %176, label %197

176:                                              ; preds = %166
  %177 = load i32, i32* %5, align 4
  %178 = sub nsw i32 %177, 1
  %179 = sext i32 %178 to i64
  %180 = getelementptr inbounds [103 x [103 x i32]], [103 x [103 x i32]]* %4, i64 0, i64 %179
  %181 = load i32, i32* %6, align 4
  %182 = sext i32 %181 to i64
  %183 = getelementptr inbounds [103 x i32], [103 x i32]* %180, i64 0, i64 %182
  %184 = load i32, i32* %183, align 4
  %185 = load i32, i32* %9, align 4
  %186 = icmp ne i32 %184, %185
  br i1 %186, label %187, label %197

187:                                              ; preds = %176
  %188 = load i32, i32* %9, align 4
  %189 = load i32, i32* %5, align 4
  %190 = sext i32 %189 to i64
  %191 = getelementptr inbounds [103 x [103 x i32]], [103 x [103 x i32]]* %4, i64 0, i64 %190
  %192 = load i32, i32* %6, align 4
  %193 = sext i32 %192 to i64
  %194 = getelementptr inbounds [103 x i32], [103 x i32]* %191, i64 0, i64 %193
  store i32 %188, i32* %194, align 4
  %195 = load i32, i32* %7, align 4
  %196 = add nsw i32 %195, 1
  store i32 %196, i32* %7, align 4
  br label %229

197:                                              ; preds = %176, %166
  %198 = load i32, i32* %5, align 4
  %199 = sext i32 %198 to i64
  %200 = getelementptr inbounds [103 x [103 x i32]], [103 x [103 x i32]]* %4, i64 0, i64 %199
  %201 = load i32, i32* %6, align 4
  %202 = sub nsw i32 %201, 1
  %203 = sext i32 %202 to i64
  %204 = getelementptr inbounds [103 x i32], [103 x i32]* %200, i64 0, i64 %203
  %205 = load i32, i32* %204, align 4
  %206 = icmp sge i32 %205, 1
  br i1 %206, label %207, label %228

207:                                              ; preds = %197
  %208 = load i32, i32* %5, align 4
  %209 = sext i32 %208 to i64
  %210 = getelementptr inbounds [103 x [103 x i32]], [103 x [103 x i32]]* %4, i64 0, i64 %209
  %211 = load i32, i32* %6, align 4
  %212 = sub nsw i32 %211, 1
  %213 = sext i32 %212 to i64
  %214 = getelementptr inbounds [103 x i32], [103 x i32]* %210, i64 0, i64 %213
  %215 = load i32, i32* %214, align 4
  %216 = load i32, i32* %9, align 4
  %217 = icmp ne i32 %215, %216
  br i1 %217, label %218, label %228

218:                                              ; preds = %207
  %219 = load i32, i32* %9, align 4
  %220 = load i32, i32* %5, align 4
  %221 = sext i32 %220 to i64
  %222 = getelementptr inbounds [103 x [103 x i32]], [103 x [103 x i32]]* %4, i64 0, i64 %221
  %223 = load i32, i32* %6, align 4
  %224 = sext i32 %223 to i64
  %225 = getelementptr inbounds [103 x i32], [103 x i32]* %222, i64 0, i64 %224
  store i32 %219, i32* %225, align 4
  %226 = load i32, i32* %7, align 4
  %227 = add nsw i32 %226, 1
  store i32 %227, i32* %7, align 4
  br label %228

228:                                              ; preds = %218, %207, %197
  br label %229

229:                                              ; preds = %228, %187
  br label %230

230:                                              ; preds = %229, %156
  br label %231

231:                                              ; preds = %230, %127
  br label %232

232:                                              ; preds = %231
  %233 = load i32, i32* %6, align 4
  %234 = add nsw i32 %233, 1
  store i32 %234, i32* %6, align 4
  br label %123

235:                                              ; preds = %123
  br label %236

236:                                              ; preds = %235
  %237 = load i32, i32* %5, align 4
  %238 = add nsw i32 %237, 1
  store i32 %238, i32* %5, align 4
  br label %118

239:                                              ; preds = %118
  br label %240

240:                                              ; preds = %239
  %241 = load i32, i32* %9, align 4
  %242 = add nsw i32 %241, 1
  store i32 %242, i32* %9, align 4
  br label %113

243:                                              ; preds = %113
  %244 = load i32, i32* %7, align 4
  %245 = call i32 (i8*, ...) @printf(i8* getelementptr inbounds ([4 x i8], [4 x i8]* @.str.2, i64 0, i64 0), i32 %244)
  ret i32 0
}

declare dso_local i32 @__isoc99_scanf(i8*, ...) #1

declare dso_local i32 @printf(i8*, ...) #1


!llvm.module.flags = !{!0}
!llvm.ident = !{!1}

!0 = !{i32 1, !"wchar_size", i32 4}
!1 = !{!"clang version 10.0.0-4ubuntu1 "}
